; Function Attrs: nounwind uwtable
define void @glfwSetWindowAspectRatio(ptr noundef %0, i32 noundef %1, i32 noundef %2) local_unnamed_addr #0 {
  %4 = load i32, ptr @_glfw, align 8, !tbaa !138
  %.not = icmp eq i32 %4, 0
  br i1 %.not, label %5, label %6

5:                                                ; preds = %3
  tail call void (i32, ptr, ...) @_glfwInputError(i32 noundef 65537, ptr noundef null) #7
  br label %23

6:                                                ; preds = %3
  %7 = icmp ne i32 %1, -1
  %8 = icmp ne i32 %2, -1
  %or.cond = and i1 %7, %8
  br i1 %or.cond, label %9, label %13

9:                                                ; preds = %6
  %10 = icmp slt i32 %1, 1
  %11 = icmp slt i32 %2, 1
  %or.cond3 = or i1 %10, %11
  br i1 %or.cond3, label %12, label %13

12:                                               ; preds = %9
  tail call void (i32, ptr, ...) @_glfwInputError(i32 noundef 65540, ptr noundef nonnull @.str.7, i32 noundef %1, i32 noundef %2) #7
  br label %23

13:                                               ; preds = %9, %6
  %14 = getelementptr inbounds nuw i8, ptr %0, i64 120
  store i32 %1, ptr %14, align 8, !tbaa !237
  %15 = getelementptr inbounds nuw i8, ptr %0, i64 124
  store i32 %2, ptr %15, align 4, !tbaa !238
  %16 = getelementptr inbounds nuw i8, ptr %0, i64 80
  %17 = load ptr, ptr %16, align 8, !tbaa !137
  %.not19 = icmp eq ptr %17, null
  br i1 %.not19, label %18, label %23

18:                                               ; preds = %13
  %19 = getelementptr inbounds nuw i8, ptr %0, i64 8
  %20 = load i32, ptr %19, align 8, !tbaa !163
  %.not20 = icmp eq i32 %20, 0
  br i1 %.not20, label %23, label %21

21:                                               ; preds = %18
  %22 = load ptr, ptr getelementptr inbounds nuw (i8, ptr @_glfw, i64 344), align 8, !tbaa !239
  tail call void %22(ptr noundef nonnull %0, i32 noundef %1, i32 noundef %2) #7
  br label %23

23:                                               ; preds = %13, %18, %21, %12, %5
  ret void
}